; ModuleID = '22/405.c'
source_filename = "22/405.c"
target datalayout = "e-m:e-p270:32:32-p271:32:32-p272:64:64-i64:64-f80:128-n8:16:32:64-S128"
target triple = "x86_64-pc-linux-gnu"

@.str = private unnamed_addr constant [3 x i8] c"%d\00", align 1
@.str.1 = private unnamed_addr constant [3 x i8] c"No\00", align 1

; Function Attrs: noinline nounwind uwtable
define dso_local i32 @main() #0 {
  %1 = alloca i32, align 4
  %2 = alloca [300 x i32], align 16
  %3 = alloca i32, align 4
  %4 = alloca i32, align 4
  %5 = alloca i32, align 4
  %6 = alloca i32, align 4
  %7 = alloca i32, align 4
  store i32 0, i32* %1, align 4
  %8 = bitcast [300 x i32]* %2 to i8*
  call void @llvm.memset.p0i8.i64(i8* align 16 %8, i8 0, i64 1200, i1 false)
  store i32 0, i32* %6, align 4
  store i32 1, i32* %3, align 4
  br label %9

9:                                                ; preds = %23, %0
  %10 = load i32, i32* %3, align 4
  %11 = icmp sle i32 %10, 300
  br i1 %11, label %12, label %26

12:                                               ; preds = %9
  %13 = load i32, i32* %3, align 4
  %14 = sub nsw i32 %13, 1
  %15 = sext i32 %14 to i64
  %16 = getelementptr inbounds [300 x i32], [300 x i32]* %2, i64 0, i64 %15
  %17 = call i32 (i8*, ...) @__isoc99_scanf(i8* getelementptr inbounds ([3 x i8], [3 x i8]* @.str, i64 0, i64 0), i32* %16)
  %18 = call i32 @getchar()
  store i32 %18, i32* %5, align 4
  %19 = load i32, i32* %5, align 4
  %20 = icmp eq i32 %19, 10
  br i1 %20, label %21, label %22

21:                                               ; preds = %12
  br label %26

22:                                               ; preds = %12
  br label %23

23:                                               ; preds = %22
  %24 = load i32, i32* %3, align 4
  %25 = add nsw i32 %24, 1
  store i32 %25, i32* %3, align 4
  br label %9

26:                                               ; preds = %21, %9
  store i32 1, i32* %3, align 4
  br label %27

27:                                               ; preds = %62, %26
  %28 = load i32, i32* %3, align 4
  %29 = icmp sle i32 %28, 300
  br i1 %29, label %30, label %65

30:                                               ; preds = %27
  store i32 1, i32* %4, align 4
  br label %31

31:                                               ; preds = %58, %30
  %32 = load i32, i32* %4, align 4
  %33 = icmp sle i32 %32, 300
  br i1 %33, label %34, label %61

34:                                               ; preds = %31
  %35 = load i32, i32* %3, align 4
  %36 = load i32, i32* %4, align 4
  %37 = icmp eq i32 %35, %36
  br i1 %37, label %38, label %39

38:                                               ; preds = %34
  br label %58

39:                                               ; preds = %34
  %40 = load i32, i32* %3, align 4
  %41 = sub nsw i32 %40, 1
  %42 = sext i32 %41 to i64
  %43 = getelementptr inbounds [300 x i32], [300 x i32]* %2, i64 0, i64 %42
  %44 = load i32, i32* %43, align 4
  %45 = load i32, i32* %4, align 4
  %46 = sub nsw i32 %45, 1
  %47 = sext i32 %46 to i64
  %48 = getelementptr inbounds [300 x i32], [300 x i32]* %2, i64 0, i64 %47
  %49 = load i32, i32* %48, align 4
  %50 = icmp eq i32 %44, %49
  br i1 %50, label %51, label %56

51:                                               ; preds = %39
  %52 = load i32, i32* %3, align 4
  %53 = sub nsw i32 %52, 1
  %54 = sext i32 %53 to i64
  %55 = getelementptr inbounds [300 x i32], [300 x i32]* %2, i64 0, i64 %54
  store i32 0, i32* %55, align 4
  br label %56

56:                                               ; preds = %51, %39
  br label %57

57:                                               ; preds = %56
  br label %58

58:                                               ; preds = %57, %38
  %59 = load i32, i32* %4, align 4
  %60 = add nsw i32 %59, 1
  store i32 %60, i32* %4, align 4
  br label %31

61:                                               ; preds = %31
  br label %62

62:                                               ; preds = %61
  %63 = load i32, i32* %3, align 4
  %64 = add nsw i32 %63, 1
  store i32 %64, i32* %3, align 4
  br label %27

65:                                               ; preds = %27
  store i32 1, i32* %3, align 4
  br label %66

66:                                               ; preds = %99, %65
  %67 = load i32, i32* %3, align 4
  %68 = icmp slt i32 %67, 300
  br i1 %68, label %69, label %102

69:                                               ; preds = %66
  %70 = load i32, i32* %3, align 4
  %71 = sub nsw i32 %70, 1
  %72 = sext i32 %71 to i64
  %73 = getelementptr inbounds [300 x i32], [300 x i32]* %2, i64 0, i64 %72
  %74 = load i32, i32* %73, align 4
  %75 = load i32, i32* %3, align 4
  %76 = sext i32 %75 to i64
  %77 = getelementptr inbounds [300 x i32], [300 x i32]* %2, i64 0, i64 %76
  %78 = load i32, i32* %77, align 4
  %79 = icmp sgt i32 %74, %78
  br i1 %79, label %80, label %98

80:                                               ; preds = %69
  %81 = load i32, i32* %3, align 4
  %82 = sub nsw i32 %81, 1
  %83 = sext i32 %82 to i64
  %84 = getelementptr inbounds [300 x i32], [300 x i32]* %2, i64 0, i64 %83
  %85 = load i32, i32* %84, align 4
  store i32 %85, i32* %7, align 4
  %86 = load i32, i32* %3, align 4
  %87 = sext i32 %86 to i64
  %88 = getelementptr inbounds [300 x i32], [300 x i32]* %2, i64 0, i64 %87
  %89 = load i32, i32* %88, align 4
  %90 = load i32, i32* %3, align 4
  %91 = sub nsw i32 %90, 1
  %92 = sext i32 %91 to i64
  %93 = getelementptr inbounds [300 x i32], [300 x i32]* %2, i64 0, i64 %92
  store i32 %89, i32* %93, align 4
  %94 = load i32, i32* %7, align 4
  %95 = load i32, i32* %3, align 4
  %96 = sext i32 %95 to i64
  %97 = getelementptr inbounds [300 x i32], [300 x i32]* %2, i64 0, i64 %96
  store i32 %94, i32* %97, align 4
  br label %98

98:                                               ; preds = %80, %69
  br label %99

99:                                               ; preds = %98
  %100 = load i32, i32* %3, align 4
  %101 = add nsw i32 %100, 1
  store i32 %101, i32* %3, align 4
  br label %66

102:                                              ; preds = %66
  store i32 1, i32* %3, align 4
  br label %103

103:                                              ; preds = %136, %102
  %104 = load i32, i32* %3, align 4
  %105 = icmp slt i32 %104, 299
  br i1 %105, label %106, label %139

106:                                              ; preds = %103
  %107 = load i32, i32* %3, align 4
  %108 = sub nsw i32 %107, 1
  %109 = sext i32 %108 to i64
  %110 = getelementptr inbounds [300 x i32], [300 x i32]* %2, i64 0, i64 %109
  %111 = load i32, i32* %110, align 4
  %112 = load i32, i32* %3, align 4
  %113 = sext i32 %112 to i64
  %114 = getelementptr inbounds [300 x i32], [300 x i32]* %2, i64 0, i64 %113
  %115 = load i32, i32* %114, align 4
  %116 = icmp sgt i32 %111, %115
  br i1 %116, label %117, label %135

117:                                              ; preds = %106
  %118 = load i32, i32* %3, align 4
  %119 = sub nsw i32 %118, 1
  %120 = sext i32 %119 to i64
  %121 = getelementptr inbounds [300 x i32], [300 x i32]* %2, i64 0, i64 %120
  %122 = load i32, i32* %121, align 4
  store i32 %122, i32* %7, align 4
  %123 = load i32, i32* %3, align 4
  %124 = sext i32 %123 to i64
  %125 = getelementptr inbounds [300 x i32], [300 x i32]* %2, i64 0, i64 %124
  %126 = load i32, i32* %125, align 4
  %127 = load i32, i32* %3, align 4
  %128 = sub nsw i32 %127, 1
  %129 = sext i32 %128 to i64
  %130 = getelementptr inbounds [300 x i32], [300 x i32]* %2, i64 0, i64 %129
  store i32 %126, i32* %130, align 4
  %131 = load i32, i32* %7, align 4
  %132 = load i32, i32* %3, align 4
  %133 = sext i32 %132 to i64
  %134 = getelementptr inbounds [300 x i32], [300 x i32]* %2, i64 0, i64 %133
  store i32 %131, i32* %134, align 4
  br label %135

135:                                              ; preds = %117, %106
  br label %136

136:                                              ; preds = %135
  %137 = load i32, i32* %3, align 4
  %138 = add nsw i32 %137, 1
  store i32 %138, i32* %3, align 4
  br label %103

139:                                              ; preds = %103
  %140 = getelementptr inbounds [300 x i32], [300 x i32]* %2, i64 0, i64 298
  %141 = load i32, i32* %140, align 8
  %142 = icmp eq i32 %141, 0
  br i1 %142, label %143, label %145

143:                                              ; preds = %139
  %144 = call i32 (i8*, ...) @printf(i8* getelementptr inbounds ([3 x i8], [3 x i8]* @.str.1, i64 0, i64 0))
  br label %149

145:                                              ; preds = %139
  %146 = getelementptr inbounds [300 x i32], [300 x i32]* %2, i64 0, i64 298
  %147 = load i32, i32* %146, align 8
  %148 = call i32 (i8*, ...) @printf(i8* getelementptr inbounds ([3 x i8], [3 x i8]* @.str, i64 0, i64 0), i32 %147)
  br label %149

149:                                              ; preds = %145, %143
  ret i32 0
}

; Function Attrs: argmemonly nounwind willreturn
declare void @llvm.memset.p0i8.i64(i8* nocapture writeonly, i8, i64, i1 immarg) #1

declare dso_local i32 @__isoc99_scanf(i8*, ...) #2

declare dso_local i32 @getchar() #2

declare dso_local i32 @printf(i8*, ...) #2


!llvm.module.flags = !{!0}
!llvm.ident = !{!1}

!0 = !{i32 1, !"wchar_size", i32 4}
!1 = !{!"clang version 10.0.0-4ubuntu1 "}
